target datalayout = "e-m:e-p270:32:32-p271:32:32-p272:64:64-i64:64-i128:128-f80:128-n8:16:32:64-S128"
target triple = "x86_64-pc-linux-gnu"

%class.BoolObjectClosure = type { ptr }
%class.G1IsAliveClosure = type { %class.BoolObjectClosure, ptr, ptr }

@_ZTV16G1IsAliveClosure = linkonce_odr hidden unnamed_addr constant { [3 x ptr] } { [3 x ptr] [ptr null, ptr null, ptr @_ZN16G1IsAliveClosure11do_object_bEP7oopDesc] }, comdat, align 8
@_ZTV17BoolObjectClosure = linkonce_odr hidden unnamed_addr constant { [3 x ptr] } { [3 x ptr] [ptr null, ptr null, ptr @__cxa_pure_virtual] }, comdat, align 8

; Function Attrs: mustprogress nounwind uwtable
define linkonce_odr hidden void @_ZN17BoolObjectClosureC2Ev(ptr noundef nonnull align 8 dereferenceable(8) %0) unnamed_addr #1 comdat align 2 {
  %2 = alloca ptr, align 8
  store ptr %0, ptr %2, align 8
  %3 = load ptr, ptr %2, align 8
  store ptr getelementptr inbounds inrange(-16, 8) ({ [3 x ptr] }, ptr @_ZTV17BoolObjectClosure, i32 0, i32 0, i32 2), ptr %3, align 8
  ret void
}

; Function Attrs: mustprogress nounwind uwtable
define linkonce_odr hidden void @_ZN16G1IsAliveClosureC2EP15G1FullCollectorP10G1CMBitMap(ptr noundef nonnull align 8 dereferenceable(24) %0, ptr noundef %1, ptr noundef %2) unnamed_addr #1 comdat align 2 {
  %4 = alloca ptr, align 8
  %5 = alloca ptr, align 8
  %6 = alloca ptr, align 8
  store ptr %0, ptr %4, align 8
  store ptr %1, ptr %5, align 8
  store ptr %2, ptr %6, align 8
  %7 = load ptr, ptr %4, align 8
  call void @_ZN17BoolObjectClosureC2Ev(ptr noundef nonnull align 8 dereferenceable(8) %7) #8
  store ptr getelementptr inbounds inrange(-16, 8) ({ [3 x ptr] }, ptr @_ZTV16G1IsAliveClosure, i32 0, i32 0, i32 2), ptr %7, align 8
  %8 = getelementptr inbounds %class.G1IsAliveClosure, ptr %7, i32 0, i32 1
  %9 = load ptr, ptr %5, align 8
  store ptr %9, ptr %8, align 8
  %10 = getelementptr inbounds %class.G1IsAliveClosure, ptr %7, i32 0, i32 2
  %11 = load ptr, ptr %6, align 8
  store ptr %11, ptr %10, align 8
  ret void
}

; Function Attrs: mustprogress nounwind uwtable
define hidden void @_ZN16G1IsAliveClosureC2EP15G1FullCollector(ptr noundef nonnull align 8 dereferenceable(24) %0, ptr noundef %1) unnamed_addr #1 align 2 {
  %3 = alloca ptr, align 8
  %4 = alloca ptr, align 8
  store ptr %0, ptr %3, align 8
  store ptr %1, ptr %4, align 8
  %5 = load ptr, ptr %3, align 8
  %6 = load ptr, ptr %4, align 8
  %7 = load ptr, ptr %4, align 8
  %8 = call noundef ptr @_ZN15G1FullCollector11mark_bitmapEv(ptr noundef nonnull align 8 dereferenceable(824) %7)
  call void @_ZN16G1IsAliveClosureC2EP15G1FullCollectorP10G1CMBitMap(ptr noundef nonnull align 8 dereferenceable(24) %5, ptr noundef %6, ptr noundef %8)
  ret void
}