; Function Attrs: mustprogress nounwind uwtable
define hidden void @_ZN16G1IsAliveClosureC2EP15G1FullCollector(ptr nocapture noundef nonnull writeonly align 8 dereferenceable(24) %0, ptr noundef nonnull %1) unnamed_addr #0 align 2 {
  %3 = tail call noundef ptr @_ZN15G1FullCollector11mark_bitmapEv(ptr noundef nonnull align 8 dereferenceable(824) %1) #8
  store ptr getelementptr inbounds inrange(-16, 8) (i8, ptr @_ZTV16G1IsAliveClosure, i64 16), ptr %0, align 8
  %4 = getelementptr inbounds i8, ptr %0, i64 8
  store ptr %1, ptr %4, align 8
  %5 = getelementptr inbounds i8, ptr %0, i64 16
  store ptr %3, ptr %5, align 8
  ret void
}